target datalayout = "e-m:e-p270:32:32-p271:32:32-p272:64:64-i64:64-i128:128-f80:128-n8:16:32:64-S128"
target triple = "x86_64-pc-linux-gnu"

%struct.pmi2_job_info = type { %struct.slurm_step_id_msg, i32, i32, i32, i32, i32, ptr, i32, i32, ptr, ptr, ptr, ptr, ptr, ptr, ptr, ptr }
%struct.slurm_step_id_msg = type { i64, i32, i32, i32 }
%struct.client_response = type { ptr }

@plugin_type = external constant [0 x i8], align 1
@job_info = external global %struct.pmi2_job_info, align 8
@.str.42 = private unnamed_addr constant [39 x i8] c"%s: %s: mpi/pmi2: in _handle_job_getid\00", align 1
@__func__._handle_job_getid = private unnamed_addr constant [18 x i8] c"_handle_job_getid\00", align 1
@.str.43 = private unnamed_addr constant [38 x i8] c"cmd=job-getid-response;rc=0;jobid=%s;\00", align 1
@.str.44 = private unnamed_addr constant [40 x i8] c"%s: %s: mpi/pmi2: out _handle_job_getid\00", align 1

; Function Attrs: nounwind uwtable
define internal i32 @_handle_job_getid(i32 noundef %0, i32 noundef %1, ptr noundef %2) #0 {
  %4 = alloca i32, align 4
  %5 = alloca i32, align 4
  %6 = alloca ptr, align 8
  %7 = alloca i32, align 4
  %8 = alloca ptr, align 8
  store i32 %0, ptr %4, align 4
  store i32 %1, ptr %5, align 4
  store ptr %2, ptr %6, align 8
  call void @llvm.lifetime.start.p0(i64 4, ptr %7) #6
  store i32 0, ptr %7, align 4
  call void @llvm.lifetime.start.p0(i64 8, ptr %8) #6
  br label %9

9:                                                ; preds = %3
  br label %10

10:                                               ; preds = %9
  %11 = call i32 @slurm_get_log_level()
  %12 = icmp sge i32 %11, 7
  br i1 %12, label %13, label %14

13:                                               ; preds = %10
  call void (i32, ptr, ...) @slurm_log_var(i32 noundef 7, ptr noundef @.str.42, ptr noundef @plugin_type, ptr noundef @__func__._handle_job_getid)
  br label %14

14:                                               ; preds = %13, %10
  br label %15

15:                                               ; preds = %14
  br label %16

16:                                               ; preds = %15
  br label %17

17:                                               ; preds = %16
  br label %18

18:                                               ; preds = %17
  %19 = call ptr @client_resp_new()
  store ptr %19, ptr %8, align 8
  br label %20

20:                                               ; preds = %18
  %21 = load ptr, ptr %8, align 8
  %22 = getelementptr inbounds nuw %struct.client_response, ptr %21, i32 0, i32 0
  %23 = load ptr, ptr getelementptr inbounds nuw (%struct.pmi2_job_info, ptr @job_info, i32 0, i32 11), align 8
  call void (ptr, ptr, ...) @slurm_xstrfmtcat(ptr noundef %22, ptr noundef @.str.43, ptr noundef %23)
  br label %24

24:                                               ; preds = %20
  br label %25

25:                                               ; preds = %24
  %26 = load ptr, ptr %8, align 8
  %27 = load i32, ptr %4, align 4
  %28 = call i32 @client_resp_send(ptr noundef %26, i32 noundef %27)
  store i32 %28, ptr %7, align 4
  %29 = load ptr, ptr %8, align 8
  call void @client_resp_free(ptr noundef %29)
  br label %30

30:                                               ; preds = %25
  br label %31

31:                                               ; preds = %30
  %32 = call i32 @slurm_get_log_level()
  %33 = icmp sge i32 %32, 7
  br i1 %33, label %34, label %35

34:                                               ; preds = %31
  call void (i32, ptr, ...) @slurm_log_var(i32 noundef 7, ptr noundef @.str.44, ptr noundef @plugin_type, ptr noundef @__func__._handle_job_getid)
  br label %35

35:                                               ; preds = %34, %31
  br label %36

36:                                               ; preds = %35
  br label %37

37:                                               ; preds = %36
  br label %38

38:                                               ; preds = %37
  br label %39

39:                                               ; preds = %38
  %40 = load i32, ptr %7, align 4
  call void @llvm.lifetime.end.p0(i64 8, ptr %8) #6
  call void @llvm.lifetime.end.p0(i64 4, ptr %7) #6
  ret i32 %40
}